target datalayout = "e-m:e-p270:32:32-p271:32:32-p272:64:64-i64:64-i128:128-f80:128-n8:16:32:64-S128"
target triple = "x86_64-pc-linux-gnu"

%struct.__ncnn_allocator_t = type { ptr, ptr, ptr }
%"class.ncnn::Mat" = type { ptr, ptr, i64, i32, ptr, i32, i32, i32, i32, i32, i64 }

; Function Attrs: mustprogress uwtable
define hidden ptr @ncnn_mat_create_2d_elem(i32 noundef %0, i32 noundef %1, i64 noundef %2, i32 noundef %3, ptr noundef %4) #1 personality ptr @__gxx_personality_v0 {
  %6 = alloca ptr, align 8
  %7 = alloca i32, align 4
  %8 = alloca i32, align 4
  %9 = alloca i64, align 8
  %10 = alloca i32, align 4
  %11 = alloca ptr, align 8
  %12 = alloca i32, align 4
  %13 = alloca i32, align 4
  %14 = alloca i64, align 8
  %15 = alloca i32, align 4
  %16 = alloca ptr, align 8
  %17 = alloca ptr, align 8
  %18 = alloca i32, align 4
  store i32 %0, ptr %12, align 4
  store i32 %1, ptr %13, align 4
  store i64 %2, ptr %14, align 8
  store i32 %3, ptr %15, align 4
  store ptr %4, ptr %16, align 8
  %19 = call noalias noundef nonnull ptr @_Znwm(i64 noundef 72) #13
  %20 = load i32, ptr %12, align 4
  %21 = load i32, ptr %13, align 4
  %22 = load i64, ptr %14, align 8
  %23 = load i32, ptr %15, align 4
  %24 = load ptr, ptr %16, align 8
  %25 = icmp ne ptr %24, null
  br i1 %25, label %26, label %30

26:                                               ; preds = %5
  %27 = load ptr, ptr %16, align 8
  %28 = getelementptr inbounds nuw %struct.__ncnn_allocator_t, ptr %27, i32 0, i32 0
  %29 = load ptr, ptr %28, align 8
  br label %31

30:                                               ; preds = %5
  br label %31

31:                                               ; preds = %30, %26
  %32 = phi ptr [ %29, %26 ], [ null, %30 ]
  store ptr %19, ptr %6, align 8
  store i32 %20, ptr %7, align 4
  store i32 %21, ptr %8, align 4
  store i64 %22, ptr %9, align 8
  store i32 %23, ptr %10, align 4
  store ptr %32, ptr %11, align 8
  %33 = load ptr, ptr %6, align 8
  store ptr null, ptr %33, align 8
  %34 = getelementptr inbounds nuw %"class.ncnn::Mat", ptr %33, i32 0, i32 1
  store ptr null, ptr %34, align 8
  %35 = getelementptr inbounds nuw %"class.ncnn::Mat", ptr %33, i32 0, i32 2
  store i64 0, ptr %35, align 8
  %36 = getelementptr inbounds nuw %"class.ncnn::Mat", ptr %33, i32 0, i32 3
  store i32 0, ptr %36, align 8
  %37 = getelementptr inbounds nuw %"class.ncnn::Mat", ptr %33, i32 0, i32 4
  store ptr null, ptr %37, align 8
  %38 = getelementptr inbounds nuw %"class.ncnn::Mat", ptr %33, i32 0, i32 5
  store i32 0, ptr %38, align 8
  %39 = getelementptr inbounds nuw %"class.ncnn::Mat", ptr %33, i32 0, i32 6
  store i32 0, ptr %39, align 4
  %40 = getelementptr inbounds nuw %"class.ncnn::Mat", ptr %33, i32 0, i32 7
  store i32 0, ptr %40, align 8
  %41 = getelementptr inbounds nuw %"class.ncnn::Mat", ptr %33, i32 0, i32 8
  store i32 0, ptr %41, align 4
  %42 = getelementptr inbounds nuw %"class.ncnn::Mat", ptr %33, i32 0, i32 9
  store i32 0, ptr %42, align 8
  %43 = getelementptr inbounds nuw %"class.ncnn::Mat", ptr %33, i32 0, i32 10
  store i64 0, ptr %43, align 8
  %44 = load i32, ptr %7, align 4
  %45 = load i32, ptr %8, align 4
  %46 = load i64, ptr %9, align 8
  %47 = load i32, ptr %10, align 4
  %48 = load ptr, ptr %11, align 8
  invoke void @_ZN4ncnn3Mat6createEiimiPNS_9AllocatorE(ptr noundef nonnull align 8 dereferenceable(72) %33, i32 noundef %44, i32 noundef %45, i64 noundef %46, i32 noundef %47, ptr noundef %48)
          to label %49 unwind label %51

49:                                               ; preds = %31
  br label %50

50:                                               ; preds = %49
  ret ptr %19

51:                                               ; preds = %31
  %52 = landingpad { ptr, i32 }
          cleanup
  %53 = extractvalue { ptr, i32 } %52, 0
  store ptr %53, ptr %17, align 8
  %54 = extractvalue { ptr, i32 } %52, 1
  store i32 %54, ptr %18, align 4
  call void @_ZdlPvm(ptr noundef %19, i64 noundef 72) #14
  br label %55

55:                                               ; preds = %51
  %56 = load ptr, ptr %17, align 8
  %57 = load i32, ptr %18, align 4
  %58 = insertvalue { ptr, i32 } poison, ptr %56, 0
  %59 = insertvalue { ptr, i32 } %58, i32 %57, 1
  resume { ptr, i32 } %59
}